target datalayout = "e-m:e-p270:32:32-p271:32:32-p272:64:64-i64:64-i128:128-f80:128-n8:16:32:64-S128"
target triple = "x86_64-pc-linux-gnu"

%"class.std::locale" = type { ptr }
%"class.boost::locale::util::locale_data" = type <{ %"class.std::__cxx11::basic_string", %"class.std::__cxx11::basic_string", %"class.std::__cxx11::basic_string", %"class.std::__cxx11::basic_string", i8, [7 x i8] }>
%"class.std::__cxx11::basic_string" = type { %"struct.std::__cxx11::basic_string<char>::_Alloc_hider", i64, %union.anon }
%"struct.std::__cxx11::basic_string<char>::_Alloc_hider" = type { ptr }
%union.anon = type { i64, [8 x i8] }

; Function Attrs: mustprogress nounwind uwtable
define linkonce_odr hidden noundef zeroext i1 @_ZNK5boost6locale4util11locale_data7is_utf8Ev(ptr noundef nonnull align 8 dereferenceable(129) %0) #1 comdat align 2 {
  %2 = alloca ptr, align 8
  store ptr %0, ptr %2, align 8, !tbaa !3
  %3 = load ptr, ptr %2, align 8
  %4 = getelementptr inbounds nuw %"class.boost::locale::util::locale_data", ptr %3, i32 0, i32 4
  %5 = load i8, ptr %4, align 8, !tbaa !9, !range !15, !noundef !16
  %6 = trunc i8 %5 to i1
  ret i1 %6
}

; Function Attrs: mustprogress uwtable
define hidden void @_ZN5boost6locale8impl_icu14create_convertERKSt6localeRKNS1_5cdataENS0_12char_facet_tE(ptr dead_on_unwind noalias writable sret(%"class.std::locale") align 8 %0, ptr noundef nonnull align 8 dereferenceable(8) %1, ptr noundef nonnull align 8 dereferenceable(360) %2, i32 noundef %3) #0 personality ptr @__gxx_personality_v0 {
  %5 = alloca ptr, align 8
  %6 = alloca ptr, align 8
  %7 = alloca ptr, align 8
  %8 = alloca i32, align 4
  %9 = alloca ptr, align 8
  %10 = alloca i32, align 4
  store ptr %0, ptr %5, align 8
  store ptr %1, ptr %6, align 8, !tbaa !3
  store ptr %2, ptr %7, align 8, !tbaa !3
  store i32 %3, ptr %8, align 4, !tbaa !7
  %11 = load i32, ptr %8, align 4, !tbaa !7
  switch i32 %11, label %42 [
    i32 0, label %42
    i32 1, label %12
    i32 2, label %33
  ]

12:                                               ; preds = %4
  %13 = load ptr, ptr %7, align 8, !tbaa !3
  %14 = call noundef zeroext i1 @_ZNK5boost6locale4util11locale_data7is_utf8Ev(ptr noundef nonnull align 8 dereferenceable(129) %13)
  br i1 %14, label %15, label %24

15:                                               ; preds = %12
  %16 = load ptr, ptr %6, align 8, !tbaa !3
  %17 = call noalias noundef nonnull ptr @_Znwm(i64 noundef 56) #17
  %18 = load ptr, ptr %7, align 8, !tbaa !3
  invoke void @_ZN5boost6locale8impl_icu19utf8_converter_implIcEC2ERKNS1_5cdataE(ptr noundef nonnull align 8 dereferenceable(56) %17, ptr noundef nonnull align 8 dereferenceable(360) %18)
          to label %19 unwind label %20

19:                                               ; preds = %15
  call void @_ZNSt6localeC2IN5boost6locale8impl_icu19utf8_converter_implIcEEEERKS_PT_(ptr noundef nonnull align 8 dereferenceable(8) %0, ptr noundef nonnull align 8 dereferenceable(8) %16, ptr noundef %17)
  br label %44

20:                                               ; preds = %15
  %21 = landingpad { ptr, i32 }
          cleanup
  %22 = extractvalue { ptr, i32 } %21, 0
  store ptr %22, ptr %9, align 8
  %23 = extractvalue { ptr, i32 } %21, 1
  store i32 %23, ptr %10, align 4
  call void @_ZdlPvm(ptr noundef %17, i64 noundef 56) #18
  br label %45

24:                                               ; preds = %12
  %25 = load ptr, ptr %6, align 8, !tbaa !3
  %26 = call noalias noundef nonnull ptr @_Znwm(i64 noundef 272) #17
  %27 = load ptr, ptr %7, align 8, !tbaa !3
  invoke void @_ZN5boost6locale8impl_icu14converter_implIcEC2ERKNS1_5cdataE(ptr noundef nonnull align 8 dereferenceable(272) %26, ptr noundef nonnull align 8 dereferenceable(360) %27)
          to label %28 unwind label %29

28:                                               ; preds = %24
  call void @_ZNSt6localeC2IN5boost6locale8impl_icu14converter_implIcEEEERKS_PT_(ptr noundef nonnull align 8 dereferenceable(8) %0, ptr noundef nonnull align 8 dereferenceable(8) %25, ptr noundef %26)
  br label %44

29:                                               ; preds = %24
  %30 = landingpad { ptr, i32 }
          cleanup
  %31 = extractvalue { ptr, i32 } %30, 0
  store ptr %31, ptr %9, align 8
  %32 = extractvalue { ptr, i32 } %30, 1
  store i32 %32, ptr %10, align 4
  call void @_ZdlPvm(ptr noundef %26, i64 noundef 272) #18
  br label %45

33:                                               ; preds = %4
  %34 = load ptr, ptr %6, align 8, !tbaa !3
  %35 = call noalias noundef nonnull ptr @_Znwm(i64 noundef 272) #17
  %36 = load ptr, ptr %7, align 8, !tbaa !3
  invoke void @_ZN5boost6locale8impl_icu14converter_implIwEC2ERKNS1_5cdataE(ptr noundef nonnull align 8 dereferenceable(272) %35, ptr noundef nonnull align 8 dereferenceable(360) %36)
          to label %37 unwind label %38

37:                                               ; preds = %33
  call void @_ZNSt6localeC2IN5boost6locale8impl_icu14converter_implIwEEEERKS_PT_(ptr noundef nonnull align 8 dereferenceable(8) %0, ptr noundef nonnull align 8 dereferenceable(8) %34, ptr noundef %35)
  br label %44

38:                                               ; preds = %33
  %39 = landingpad { ptr, i32 }
          cleanup
  %40 = extractvalue { ptr, i32 } %39, 0
  store ptr %40, ptr %9, align 8
  %41 = extractvalue { ptr, i32 } %39, 1
  store i32 %41, ptr %10, align 4
  call void @_ZdlPvm(ptr noundef %35, i64 noundef 272) #18
  br label %45

42:                                               ; preds = %4, %4
  %43 = load ptr, ptr %6, align 8, !tbaa !3
  call void @_ZNSt6localeC1ERKS_(ptr noundef nonnull align 8 dereferenceable(8) %0, ptr noundef nonnull align 8 dereferenceable(8) %43) #19
  br label %44

44:                                               ; preds = %42, %37, %28, %19
  ret void

45:                                               ; preds = %38, %29, %20
  %46 = load ptr, ptr %9, align 8
  %47 = load i32, ptr %10, align 4
  %48 = insertvalue { ptr, i32 } poison, ptr %46, 0
  %49 = insertvalue { ptr, i32 } %48, i32 %47, 1
  resume { ptr, i32 } %49
}