; Function Attrs: mustprogress uwtable
define hidden void @_ZN5boost6locale8impl_icu14create_convertERKSt6localeRKNS1_5cdataENS0_12char_facet_tE(ptr dead_on_unwind noalias writable sret(%"class.std::locale") align 8 %0, ptr noundef nonnull align 8 dereferenceable(8) %1, ptr noundef nonnull align 8 dereferenceable(360) %2, i32 noundef %3) local_unnamed_addr #0 personality ptr @__gxx_personality_v0 {
  switch i32 %3, label %24 [
    i32 2, label %19
    i32 1, label %5
  ]

5:                                                ; preds = %4
  %6 = getelementptr inbounds nuw i8, ptr %2, i64 128
  %7 = load i8, ptr %6, align 8, !tbaa !3, !range !12, !noundef !13
  %8 = trunc nuw i8 %7 to i1
  br i1 %8, label %9, label %14

9:                                                ; preds = %5
  %10 = tail call noalias noundef nonnull dereferenceable(56) ptr @_Znwm(i64 noundef 56) #19
  invoke void @_ZN5boost6locale8impl_icu19utf8_converter_implIcEC2ERKNS1_5cdataE(ptr noundef nonnull align 8 dereferenceable(56) %10, ptr noundef nonnull align 8 dereferenceable(360) %2)
          to label %11 unwind label %12

11:                                               ; preds = %9
  tail call void @_ZNSt6localeC2IN5boost6locale8impl_icu19utf8_converter_implIcEEEERKS_PT_(ptr noundef nonnull align 8 dereferenceable(8) %0, ptr noundef nonnull align 8 dereferenceable(8) %1, ptr noundef nonnull %10)
  br label %25

12:                                               ; preds = %9
  %13 = landingpad { ptr, i32 }
          cleanup
  tail call void @_ZdlPvm(ptr noundef nonnull %10, i64 noundef 56) #20
  br label %26

14:                                               ; preds = %5
  %15 = tail call noalias noundef nonnull dereferenceable(272) ptr @_Znwm(i64 noundef 272) #19
  invoke void @_ZN5boost6locale8impl_icu14converter_implIcEC2ERKNS1_5cdataE(ptr noundef nonnull align 8 dereferenceable(272) %15, ptr noundef nonnull align 8 dereferenceable(360) %2)
          to label %16 unwind label %17

16:                                               ; preds = %14
  tail call void @_ZNSt6localeC2IN5boost6locale8impl_icu14converter_implIcEEEERKS_PT_(ptr noundef nonnull align 8 dereferenceable(8) %0, ptr noundef nonnull align 8 dereferenceable(8) %1, ptr noundef nonnull %15)
  br label %25

17:                                               ; preds = %14
  %18 = landingpad { ptr, i32 }
          cleanup
  tail call void @_ZdlPvm(ptr noundef nonnull %15, i64 noundef 272) #20
  br label %26

19:                                               ; preds = %4
  %20 = tail call noalias noundef nonnull dereferenceable(272) ptr @_Znwm(i64 noundef 272) #19
  invoke void @_ZN5boost6locale8impl_icu14converter_implIwEC2ERKNS1_5cdataE(ptr noundef nonnull align 8 dereferenceable(272) %20, ptr noundef nonnull align 8 dereferenceable(360) %2)
          to label %21 unwind label %22

21:                                               ; preds = %19
  tail call void @_ZNSt6localeC2IN5boost6locale8impl_icu14converter_implIwEEEERKS_PT_(ptr noundef nonnull align 8 dereferenceable(8) %0, ptr noundef nonnull align 8 dereferenceable(8) %1, ptr noundef nonnull %20)
  br label %25

22:                                               ; preds = %19
  %23 = landingpad { ptr, i32 }
          cleanup
  tail call void @_ZdlPvm(ptr noundef nonnull %20, i64 noundef 272) #20
  br label %26

24:                                               ; preds = %4
  tail call void @_ZNSt6localeC1ERKS_(ptr noundef nonnull align 8 dereferenceable(8) %0, ptr noundef nonnull align 8 dereferenceable(8) %1) #21
  br label %25

25:                                               ; preds = %24, %21, %16, %11
  ret void

26:                                               ; preds = %22, %17, %12
  %.pn = phi { ptr, i32 } [ %13, %12 ], [ %18, %17 ], [ %23, %22 ]
  resume { ptr, i32 } %.pn
}